target datalayout = "e-m:e-p270:32:32-p271:32:32-p272:64:64-i64:64-i128:128-f80:128-n8:16:32:64-S128"
target triple = "x86_64-pc-linux-gnu"

%"class.std::__cxx11::basic_string" = type { %"struct.std::__cxx11::basic_string<char>::_Alloc_hider", i64, %union.anon }
%"struct.std::__cxx11::basic_string<char>::_Alloc_hider" = type { ptr }
%union.anon = type { i64, [8 x i8] }
%"class.mu::ParserError" = type { %"class.std::__cxx11::basic_string", %"class.std::__cxx11::basic_string", %"class.std::__cxx11::basic_string", i32, i32, ptr }
%class.ParserTag = type { ptr, %"class.mu::ParserError", ptr, i8, i32 }

@_ZTIN2mu11ParserErrorE = linkonce_odr constant { ptr, ptr } { ptr getelementptr inbounds (ptr, ptr @_ZTVN10__cxxabiv117__class_type_infoE, i64 2), ptr @_ZTSN2mu11ParserErrorE }, comdat, align 8

; Function Attrs: inlinehint mustprogress nounwind uwtable
define linkonce_odr noundef ptr @_Z8AsParserPv(ptr noundef %0) #10 comdat {
  %2 = alloca ptr, align 8
  store ptr %0, ptr %2, align 8, !tbaa !32
  %3 = load ptr, ptr %2, align 8, !tbaa !32
  %4 = getelementptr inbounds nuw %class.ParserTag, ptr %3, i32 0, i32 0
  %5 = load ptr, ptr %4, align 8, !tbaa !47
  ret ptr %5
}

; Function Attrs: mustprogress uwtable
define double @mupEval(ptr noundef %0) #6 personality ptr @__gxx_personality_v0 {
  %2 = alloca double, align 8
  %3 = alloca ptr, align 8
  %4 = alloca ptr, align 8
  %5 = alloca ptr, align 8
  %6 = alloca i32, align 4
  %7 = alloca ptr, align 8
  %8 = alloca %"class.mu::ParserError", align 8
  %9 = alloca ptr, align 8
  %10 = alloca ptr, align 8
  store ptr %0, ptr %3, align 8, !tbaa !32
  call void @llvm.lifetime.start.p0(i64 8, ptr %4) #3
  %11 = load ptr, ptr %3, align 8, !tbaa !32
  %12 = call noundef ptr @_Z8AsParserPv(ptr noundef %11)
  store ptr %12, ptr %4, align 8, !tbaa !33
  %13 = load ptr, ptr %4, align 8, !tbaa !33
  %14 = invoke noundef double @_ZNK2mu10ParserBase4EvalEv(ptr noundef nonnull align 8 dereferenceable(596) %13)
          to label %15 unwind label %16

15:                                               ; preds = %1
  store double %14, ptr %2, align 8
  call void @llvm.lifetime.end.p0(i64 8, ptr %4) #3
  br label %89

16:                                               ; preds = %1
  %17 = landingpad { ptr, i32 }
          catch ptr @_ZTIN2mu11ParserErrorE
          catch ptr null
  %18 = extractvalue { ptr, i32 } %17, 0
  store ptr %18, ptr %5, align 8
  %19 = extractvalue { ptr, i32 } %17, 1
  store i32 %19, ptr %6, align 4
  call void @llvm.lifetime.end.p0(i64 8, ptr %4) #3
  br label %20

20:                                               ; preds = %16
  %21 = load i32, ptr %6, align 4
  %22 = call i32 @llvm.eh.typeid.for.p0(ptr @_ZTIN2mu11ParserErrorE) #3
  %23 = icmp eq i32 %21, %22
  br i1 %23, label %24, label %45

24:                                               ; preds = %20
  call void @llvm.lifetime.start.p0(i64 8, ptr %9) #3
  %25 = load ptr, ptr %5, align 8
  %26 = call ptr @__cxa_begin_catch(ptr %25) #3
  store ptr %26, ptr %9, align 8
  call void @llvm.lifetime.start.p0(i64 8, ptr %10) #3
  %27 = load ptr, ptr %3, align 8, !tbaa !32
  store ptr %27, ptr %10, align 8, !tbaa !35
  %28 = load ptr, ptr %9, align 8, !tbaa !37
  %29 = load ptr, ptr %10, align 8, !tbaa !35
  %30 = getelementptr inbounds nuw %class.ParserTag, ptr %29, i32 0, i32 1
  %31 = invoke noundef nonnull align 8 dereferenceable(112) ptr @_ZN2mu11ParserErroraSERKS0_(ptr noundef nonnull align 8 dereferenceable(112) %30, ptr noundef nonnull align 8 dereferenceable(112) %28)
          to label %32 unwind label %82

32:                                               ; preds = %24
  %33 = load ptr, ptr %10, align 8, !tbaa !35
  %34 = getelementptr inbounds nuw %class.ParserTag, ptr %33, i32 0, i32 3
  store i8 1, ptr %34, align 8, !tbaa !39
  %35 = load ptr, ptr %10, align 8, !tbaa !35
  %36 = getelementptr inbounds nuw %class.ParserTag, ptr %35, i32 0, i32 2
  %37 = load ptr, ptr %36, align 8, !tbaa !46
  %38 = icmp ne ptr %37, null
  br i1 %38, label %39, label %86

39:                                               ; preds = %32
  %40 = load ptr, ptr %10, align 8, !tbaa !35
  %41 = getelementptr inbounds nuw %class.ParserTag, ptr %40, i32 0, i32 2
  %42 = load ptr, ptr %41, align 8, !tbaa !46
  %43 = load ptr, ptr %3, align 8, !tbaa !32
  invoke void %42(ptr noundef %43)
          to label %44 unwind label %82

44:                                               ; preds = %39
  br label %86

45:                                               ; preds = %20
  %46 = load ptr, ptr %5, align 8
  %47 = call ptr @__cxa_begin_catch(ptr %46) #3
  call void @llvm.lifetime.start.p0(i64 8, ptr %7) #3
  %48 = load ptr, ptr %3, align 8, !tbaa !32
  store ptr %48, ptr %7, align 8, !tbaa !35
  call void @llvm.lifetime.start.p0(i64 112, ptr %8) #3
  invoke void @_ZN2mu11ParserErrorC1ENS_11EErrorCodesE(ptr noundef nonnull align 8 dereferenceable(112) %8, i32 noundef 39)
          to label %49 unwind label %66

49:                                               ; preds = %45
  %50 = load ptr, ptr %7, align 8, !tbaa !35
  %51 = getelementptr inbounds nuw %class.ParserTag, ptr %50, i32 0, i32 1
  %52 = invoke noundef nonnull align 8 dereferenceable(112) ptr @_ZN2mu11ParserErroraSERKS0_(ptr noundef nonnull align 8 dereferenceable(112) %51, ptr noundef nonnull align 8 dereferenceable(112) %8)
          to label %53 unwind label %70

53:                                               ; preds = %49
  call void @_ZN2mu11ParserErrorD1Ev(ptr noundef nonnull align 8 dereferenceable(112) %8) #3
  call void @llvm.lifetime.end.p0(i64 112, ptr %8) #3
  %54 = load ptr, ptr %7, align 8, !tbaa !35
  %55 = getelementptr inbounds nuw %class.ParserTag, ptr %54, i32 0, i32 3
  store i8 1, ptr %55, align 8, !tbaa !39
  %56 = load ptr, ptr %7, align 8, !tbaa !35
  %57 = getelementptr inbounds nuw %class.ParserTag, ptr %56, i32 0, i32 2
  %58 = load ptr, ptr %57, align 8, !tbaa !46
  %59 = icmp ne ptr %58, null
  br i1 %59, label %60, label %79

60:                                               ; preds = %53
  %61 = load ptr, ptr %7, align 8, !tbaa !35
  %62 = getelementptr inbounds nuw %class.ParserTag, ptr %61, i32 0, i32 2
  %63 = load ptr, ptr %62, align 8, !tbaa !46
  %64 = load ptr, ptr %3, align 8, !tbaa !32
  invoke void %63(ptr noundef %64)
          to label %65 unwind label %75

65:                                               ; preds = %60
  br label %79

66:                                               ; preds = %45
  %67 = landingpad { ptr, i32 }
          cleanup
  %68 = extractvalue { ptr, i32 } %67, 0
  store ptr %68, ptr %5, align 8
  %69 = extractvalue { ptr, i32 } %67, 1
  store i32 %69, ptr %6, align 4
  br label %74

70:                                               ; preds = %49
  %71 = landingpad { ptr, i32 }
          cleanup
  %72 = extractvalue { ptr, i32 } %71, 0
  store ptr %72, ptr %5, align 8
  %73 = extractvalue { ptr, i32 } %71, 1
  store i32 %73, ptr %6, align 4
  call void @_ZN2mu11ParserErrorD1Ev(ptr noundef nonnull align 8 dereferenceable(112) %8) #3
  br label %74

74:                                               ; preds = %70, %66
  call void @llvm.lifetime.end.p0(i64 112, ptr %8) #3
  br label %80

75:                                               ; preds = %60
  %76 = landingpad { ptr, i32 }
          cleanup
  %77 = extractvalue { ptr, i32 } %76, 0
  store ptr %77, ptr %5, align 8
  %78 = extractvalue { ptr, i32 } %76, 1
  store i32 %78, ptr %6, align 4
  br label %80

79:                                               ; preds = %65, %53
  call void @llvm.lifetime.end.p0(i64 8, ptr %7) #3
  call void @__cxa_end_catch()
  br label %87

80:                                               ; preds = %75, %74
  call void @llvm.lifetime.end.p0(i64 8, ptr %7) #3
  invoke void @__cxa_end_catch()
          to label %81 unwind label %96

81:                                               ; preds = %80
  br label %91

82:                                               ; preds = %39, %24
  %83 = landingpad { ptr, i32 }
          cleanup
  %84 = extractvalue { ptr, i32 } %83, 0
  store ptr %84, ptr %5, align 8
  %85 = extractvalue { ptr, i32 } %83, 1
  store i32 %85, ptr %6, align 4
  call void @llvm.lifetime.end.p0(i64 8, ptr %10) #3
  invoke void @__cxa_end_catch()
          to label %88 unwind label %96

86:                                               ; preds = %44, %32
  call void @llvm.lifetime.end.p0(i64 8, ptr %10) #3
  call void @__cxa_end_catch()
  call void @llvm.lifetime.end.p0(i64 8, ptr %9) #3
  br label %87

87:                                               ; preds = %86, %79
  store double 0.000000e+00, ptr %2, align 8
  br label %89

88:                                               ; preds = %82
  call void @llvm.lifetime.end.p0(i64 8, ptr %9) #3
  br label %91

89:                                               ; preds = %87, %15
  %90 = load double, ptr %2, align 8
  ret double %90

91:                                               ; preds = %88, %81
  %92 = load ptr, ptr %5, align 8
  %93 = load i32, ptr %6, align 4
  %94 = insertvalue { ptr, i32 } poison, ptr %92, 0
  %95 = insertvalue { ptr, i32 } %94, i32 %93, 1
  resume { ptr, i32 } %95

96:                                               ; preds = %82, %80
  %97 = landingpad { ptr, i32 }
          catch ptr null
  %98 = extractvalue { ptr, i32 } %97, 0
  call void @__clang_call_terminate(ptr %98) #19
  unreachable
}